; Function Attrs: mustprogress nofree norecurse nosync nounwind willreturn memory(read, argmem: none, inaccessiblemem: none) uwtable
define ptr @l___private_Lean_Data_FuzzyMatching_0__Lean_FuzzyMatching_fuzzyMatchCore_skipPenalty(i8 noundef zeroext %0, i8 noundef zeroext %1) local_unnamed_addr #3 {
  %3 = icmp eq i8 %1, 0
  br i1 %3, label %4, label %6

4:                                                ; preds = %2
  %5 = icmp eq i8 %0, 0
  %l___private_Lean_Data_FuzzyMatching_0__Lean_FuzzyMatching_fuzzyMatchCore_skipPenalty___lambda__2___closed__2.val.i = load ptr, ptr @l___private_Lean_Data_FuzzyMatching_0__Lean_FuzzyMatching_fuzzyMatchCore_skipPenalty___lambda__2___closed__2, align 8
  %l___private_Lean_Data_FuzzyMatching_0__Lean_FuzzyMatching_fuzzyMatchCore_skipPenalty___lambda__2___closed__3.val.i = load ptr, ptr @l___private_Lean_Data_FuzzyMatching_0__Lean_FuzzyMatching_fuzzyMatchCore_skipPenalty___lambda__2___closed__3, align 8
  %.0.i = select i1 %5, ptr %l___private_Lean_Data_FuzzyMatching_0__Lean_FuzzyMatching_fuzzyMatchCore_skipPenalty___lambda__2___closed__2.val.i, ptr %l___private_Lean_Data_FuzzyMatching_0__Lean_FuzzyMatching_fuzzyMatchCore_skipPenalty___lambda__2___closed__3.val.i
  br label %8

6:                                                ; preds = %2
  %7 = load ptr, ptr @l___private_Lean_Data_FuzzyMatching_0__Lean_FuzzyMatching_fuzzyMatchCore_skipPenalty___closed__1, align 8, !tbaa !11
  br label %8

8:                                                ; preds = %6, %4
  %.0 = phi ptr [ %.0.i, %4 ], [ %7, %6 ]
  ret ptr %.0
}